target datalayout = "e-m:e-p270:32:32-p271:32:32-p272:64:64-i64:64-i128:128-f80:128-n8:16:32:64-S128"
target triple = "x86_64-pc-linux-gnu"

%struct._zend_executor_globals = type { %struct._zval_struct, %struct._zval_struct, [32 x ptr], ptr, ptr, %struct._zend_array, %struct._zend_array, ptr, i32, i32, ptr, ptr, ptr, ptr, ptr, ptr, i64, ptr, ptr, i32, i32, i64, i32, i32, i32, i8, i8, %struct.zend_atomic_bool_s, %struct.zend_atomic_bool_s, ptr, i64, ptr, ptr, %struct._zend_array, %struct._zend_array, i32, i8, %struct._zval_struct, %struct._zval_struct, %struct._zend_stack, %struct._zend_stack, %struct._zend_stack, ptr, i32, i32, i64, ptr, ptr, ptr, %struct._zend_objects_store, ptr, ptr, ptr, [3 x %struct._zend_op], ptr, i8, i8, i64, i32, i32, ptr, [16 x %struct._HashTableIterator], ptr, %union._zend_function, %struct._zend_op, %struct._zend_array, i64, %struct.zend_get_gc_buffer, ptr, ptr, ptr, i64, i8, i32, ptr, ptr, i64, %struct._zend_call_stack, i64, i64, [6 x ptr] }
%struct.zend_atomic_bool_s = type { i8 }
%struct._zval_struct = type { %union._zend_value, %union.anon, %union.anon.2 }
%union._zend_value = type { i64 }
%union.anon = type { i32 }
%union.anon.2 = type { i32 }
%struct._zend_stack = type { i32, i32, i32, ptr }
%struct._zend_objects_store = type { ptr, i32, i32, i32 }
%struct._HashTableIterator = type { ptr, i32, i32 }
%union._zend_function = type { %struct._zend_op_array }
%struct._zend_op_array = type { i8, [3 x i8], i32, ptr, ptr, ptr, i32, i32, ptr, ptr, ptr, ptr, i32, i32, i32, i32, ptr, ptr, ptr, ptr, ptr, i32, i32, ptr, ptr, ptr, i32, i32, i32, i32, ptr, ptr, [6 x ptr] }
%struct._zend_op = type { ptr, %union._znode_op, %union._znode_op, %union._znode_op, i32, i32, i8, i8, i8, i8 }
%union._znode_op = type { i32 }
%struct._zend_array = type { %struct._zend_refcounted_h, %union.anon.4, i32, %union.anon.6, i32, i32, i32, i32, i64, ptr }
%struct._zend_refcounted_h = type { i32, %union.anon.3 }
%union.anon.3 = type { i32 }
%union.anon.4 = type { i32 }
%union.anon.6 = type { ptr }
%struct.zend_get_gc_buffer = type { ptr, ptr, ptr }
%struct._zend_call_stack = type { ptr, i64 }
%struct._zend_execute_data = type { ptr, ptr, ptr, ptr, %struct._zval_struct, ptr, ptr, ptr, ptr }
%struct._zend_object = type { %struct._zend_refcounted_h, i32, ptr, ptr, ptr, [1 x %struct._zval_struct] }
%struct._spl_recursive_it_object = type { ptr, i32, i32, i32, i32, i8, ptr, ptr, ptr, ptr, ptr, ptr, ptr, ptr, [6 x ptr], [1 x ptr], %struct._zend_object }
%struct._zend_string = type { %struct._zend_refcounted_h, i64, i64, [1 x i8] }

@executor_globals = external global %struct._zend_executor_globals, align 8
@.str = private unnamed_addr constant [75 x i8] c"The object is in an invalid state as the parent constructor was not called\00", align 1

; Function Attrs: nounwind uwtable
define internal ptr @spl_recursive_tree_iterator_get_postfix(ptr noundef %0) #0 {
  %2 = alloca ptr, align 8
  %3 = alloca i32, align 4
  %4 = alloca ptr, align 8
  %5 = alloca ptr, align 8
  store ptr %0, ptr %5, align 8
  %6 = load ptr, ptr %5, align 8
  %7 = getelementptr inbounds %struct._spl_recursive_it_object, ptr %6, i32 0, i32 15
  %8 = getelementptr inbounds [1 x ptr], ptr %7, i64 0, i64 0
  %9 = load ptr, ptr %8, align 8
  store ptr %9, ptr %4, align 8
  %10 = load ptr, ptr %4, align 8
  %11 = getelementptr inbounds %struct._zend_refcounted_h, ptr %10, i32 0, i32 1
  %12 = load i32, ptr %11, align 4
  store i32 %12, ptr %3, align 4
  %13 = load i32, ptr %3, align 4
  %14 = and i32 %13, 1008
  %15 = and i32 %14, 64
  %16 = icmp ne i32 %15, 0
  br i1 %16, label %22, label %17

17:                                               ; preds = %1
  %18 = load ptr, ptr %4, align 8
  store ptr %18, ptr %2, align 8
  %19 = load ptr, ptr %2, align 8
  %20 = load i32, ptr %19, align 4
  %21 = add i32 %20, 1
  store i32 %21, ptr %19, align 4
  br label %22

22:                                               ; preds = %17, %1
  %23 = load ptr, ptr %4, align 8
  ret ptr %23
}

; Function Attrs: nounwind uwtable
define internal ptr @spl_recursive_it_from_obj(ptr noundef %0) #0 {
  %2 = alloca ptr, align 8
  store ptr %0, ptr %2, align 8
  %3 = load ptr, ptr %2, align 8
  %4 = getelementptr inbounds i8, ptr %3, i64 -152
  ret ptr %4
}

; Function Attrs: nounwind uwtable
define hidden void @zim_RecursiveTreeIterator_getPostfix(ptr noundef %0, ptr noundef %1) #0 {
  %3 = alloca i32, align 4
  %4 = alloca ptr, align 8
  %5 = alloca ptr, align 8
  %6 = alloca ptr, align 8
  %7 = alloca ptr, align 8
  %8 = alloca ptr, align 8
  store ptr %0, ptr %4, align 8
  store ptr %1, ptr %5, align 8
  %9 = load ptr, ptr %4, align 8
  %10 = getelementptr inbounds %struct._zend_execute_data, ptr %9, i32 0, i32 4
  %11 = getelementptr inbounds %struct._zval_struct, ptr %10, i32 0, i32 0
  %12 = load ptr, ptr %11, align 8
  %13 = call ptr @spl_recursive_it_from_obj(ptr noundef %12)
  store ptr %13, ptr %6, align 8
  %14 = load ptr, ptr %4, align 8
  %15 = getelementptr inbounds %struct._zend_execute_data, ptr %14, i32 0, i32 4
  %16 = getelementptr inbounds %struct._zval_struct, ptr %15, i32 0, i32 2
  %17 = load i32, ptr %16, align 4
  %18 = icmp eq i32 %17, 0
  %19 = xor i1 %18, true
  %20 = xor i1 %19, true
  %21 = zext i1 %20 to i32
  %22 = sext i32 %21 to i64
  %23 = icmp ne i64 %22, 0
  br i1 %23, label %24, label %25

24:                                               ; preds = %2
  br label %26

25:                                               ; preds = %2
  call void @zend_wrong_parameters_none_error()
  br label %26

26:                                               ; preds = %25, %24
  %27 = phi i32 [ 0, %24 ], [ -1, %25 ]
  %28 = icmp eq i32 %27, -1
  br i1 %28, label %29, label %34

29:                                               ; preds = %26
  br label %30

30:                                               ; preds = %29
  %31 = load ptr, ptr getelementptr inbounds (%struct._zend_executor_globals, ptr @executor_globals, i32 0, i32 50), align 8
  %32 = icmp ne ptr %31, null
  call void @llvm.assume(i1 %32)
  br label %65

33:                                               ; No predecessors!
  br label %34

34:                                               ; preds = %33, %26
  %35 = load ptr, ptr %6, align 8
  %36 = getelementptr inbounds %struct._spl_recursive_it_object, ptr %35, i32 0, i32 0
  %37 = load ptr, ptr %36, align 8
  %38 = icmp ne ptr %37, null
  br i1 %38, label %44, label %39

39:                                               ; preds = %34
  call void (ptr, ptr, ...) @zend_throw_error(ptr noundef null, ptr noundef @.str)
  br label %40

40:                                               ; preds = %39
  %41 = load ptr, ptr getelementptr inbounds (%struct._zend_executor_globals, ptr @executor_globals, i32 0, i32 50), align 8
  %42 = icmp ne ptr %41, null
  call void @llvm.assume(i1 %42)
  br label %65

43:                                               ; No predecessors!
  br label %44

44:                                               ; preds = %43, %34
  br label %45

45:                                               ; preds = %44
  br label %46

46:                                               ; preds = %45
  %47 = load ptr, ptr %5, align 8
  store ptr %47, ptr %7, align 8
  %48 = load ptr, ptr %6, align 8
  %49 = call ptr @spl_recursive_tree_iterator_get_postfix(ptr noundef %48)
  store ptr %49, ptr %8, align 8
  %50 = load ptr, ptr %8, align 8
  %51 = load ptr, ptr %7, align 8
  %52 = getelementptr inbounds %struct._zval_struct, ptr %51, i32 0, i32 0
  store ptr %50, ptr %52, align 8
  %53 = load ptr, ptr %8, align 8
  %54 = getelementptr inbounds %struct._zend_string, ptr %53, i32 0, i32 0
  %55 = getelementptr inbounds %struct._zend_refcounted_h, ptr %54, i32 0, i32 1
  %56 = load i32, ptr %55, align 4
  store i32 %56, ptr %3, align 4
  %57 = load i32, ptr %3, align 4
  %58 = and i32 %57, 1008
  %59 = and i32 %58, 64
  %60 = icmp ne i32 %59, 0
  %61 = select i1 %60, i32 6, i32 262
  %62 = load ptr, ptr %7, align 8
  %63 = getelementptr inbounds %struct._zval_struct, ptr %62, i32 0, i32 1
  store i32 %61, ptr %63, align 8
  br label %64

64:                                               ; preds = %46
  br label %65

65:                                               ; preds = %64, %40, %30
  ret void
}