; Function Attrs: nounwind uwtable
define hidden void @zim_RecursiveTreeIterator_getPostfix(ptr nocapture noundef readonly %0, ptr nocapture noundef writeonly %1) #0 {
  %3 = getelementptr inbounds i8, ptr %0, i64 32
  %4 = load ptr, ptr %3, align 8
  %5 = getelementptr inbounds i8, ptr %0, i64 44
  %6 = load i32, ptr %5, align 4
  %.not = icmp eq i32 %6, 0
  br i1 %.not, label %.critedge, label %7

7:                                                ; preds = %2
  tail call void @zend_wrong_parameters_none_error() #10
  %8 = load ptr, ptr getelementptr inbounds (%struct._zend_executor_globals, ptr @executor_globals, i64 0, i32 50), align 8
  %9 = icmp ne ptr %8, null
  tail call void @llvm.assume(i1 %9)
  br label %27

.critedge:                                        ; preds = %2
  %10 = getelementptr inbounds i8, ptr %4, i64 -152
  %11 = load ptr, ptr %10, align 8
  %.not9 = icmp eq ptr %11, null
  br i1 %.not9, label %12, label %15

12:                                               ; preds = %.critedge
  tail call void (ptr, ptr, ...) @zend_throw_error(ptr noundef null, ptr noundef nonnull @.str) #10
  %13 = load ptr, ptr getelementptr inbounds (%struct._zend_executor_globals, ptr @executor_globals, i64 0, i32 50), align 8
  %14 = icmp ne ptr %13, null
  tail call void @llvm.assume(i1 %14)
  br label %27

15:                                               ; preds = %.critedge
  %16 = getelementptr i8, ptr %4, i64 -8
  %.val = load ptr, ptr %16, align 8
  %17 = getelementptr inbounds i8, ptr %.val, i64 4
  %18 = load i32, ptr %17, align 4
  %19 = and i32 %18, 64
  %.not.i = icmp eq i32 %19, 0
  br i1 %.not.i, label %20, label %spl_recursive_tree_iterator_get_postfix.exit

20:                                               ; preds = %15
  %21 = load i32, ptr %.val, align 4
  %22 = add i32 %21, 1
  store i32 %22, ptr %.val, align 4
  br label %spl_recursive_tree_iterator_get_postfix.exit

spl_recursive_tree_iterator_get_postfix.exit:     ; preds = %15, %20
  store ptr %.val, ptr %1, align 8
  %23 = load i32, ptr %17, align 4
  %24 = and i32 %23, 64
  %.not10 = icmp eq i32 %24, 0
  %25 = select i1 %.not10, i32 262, i32 6
  %26 = getelementptr inbounds i8, ptr %1, i64 8
  store i32 %25, ptr %26, align 8
  br label %27

27:                                               ; preds = %spl_recursive_tree_iterator_get_postfix.exit, %12, %7
  ret void
}